target datalayout = "e-m:e-p270:32:32-p271:32:32-p272:64:64-i64:64-i128:128-f80:128-n8:16:32:64-S128"
target triple = "x86_64-pc-linux-gnu"

%"struct.faiss::VectorTransform" = type <{ ptr, i32, i32, i8, [7 x i8] }>
%"struct.faiss::VectorTransform.base" = type <{ ptr, i32, i32, i8 }>
%"struct.faiss::RemapDimensionsTransform" = type { %"struct.faiss::VectorTransform.base", %"class.std::vector.9" }
%"class.std::vector.9" = type { %"struct.std::_Vector_base.10" }
%"struct.std::_Vector_base.10" = type { %"struct.std::_Vector_base<int, std::allocator<int>>::_Vector_impl" }
%"struct.std::_Vector_base<int, std::allocator<int>>::_Vector_impl" = type { %"struct.std::_Vector_base<int, std::allocator<int>>::_Vector_impl_data" }
%"struct.std::_Vector_base<int, std::allocator<int>>::_Vector_impl_data" = type { ptr, ptr, ptr }

; Function Attrs: mustprogress nounwind uwtable
define linkonce_odr noundef nonnull align 4 dereferenceable(4) ptr @_ZNKSt6vectorIiSaIiEEixEm(ptr noundef nonnull align 8 dereferenceable(24) %0, i64 noundef %1) #0 comdat align 2 {
  %3 = alloca ptr, align 8
  %4 = alloca i64, align 8
  store ptr %0, ptr %3, align 8, !tbaa !262
  store i64 %1, ptr %4, align 8, !tbaa !9
  %5 = load ptr, ptr %3, align 8
  %6 = getelementptr inbounds nuw %"struct.std::_Vector_base.10", ptr %5, i32 0, i32 0
  %7 = getelementptr inbounds nuw %"struct.std::_Vector_base<int, std::allocator<int>>::_Vector_impl_data", ptr %6, i32 0, i32 0
  %8 = load ptr, ptr %7, align 8, !tbaa !266
  %9 = load i64, ptr %4, align 8, !tbaa !9
  %10 = getelementptr inbounds nuw i32, ptr %8, i64 %9
  ret ptr %10
}

; Function Attrs: mustprogress nounwind uwtable
define void @_ZNK5faiss24RemapDimensionsTransform17reverse_transformElPKfPf(ptr noundef nonnull align 8 dereferenceable(48) %0, i64 noundef %1, ptr noundef %2, ptr noundef %3) unnamed_addr #0 align 2 {
  %5 = alloca ptr, align 8
  %6 = alloca i64, align 8
  %7 = alloca ptr, align 8
  %8 = alloca ptr, align 8
  %9 = alloca i64, align 8
  %10 = alloca i32, align 4
  %11 = alloca i32, align 4
  store ptr %0, ptr %5, align 8, !tbaa !38
  store i64 %1, ptr %6, align 8, !tbaa !9
  store ptr %2, ptr %7, align 8, !tbaa !11
  store ptr %3, ptr %8, align 8, !tbaa !11
  %12 = load ptr, ptr %5, align 8
  %13 = load ptr, ptr %8, align 8, !tbaa !11
  %14 = load i64, ptr %6, align 8, !tbaa !9
  %15 = mul i64 4, %14
  %16 = getelementptr inbounds nuw %"struct.faiss::VectorTransform", ptr %12, i32 0, i32 1
  %17 = load i32, ptr %16, align 8, !tbaa !34
  %18 = sext i32 %17 to i64
  %19 = mul i64 %15, %18
  call void @llvm.memset.p0.i64(ptr align 4 %13, i8 0, i64 %19, i1 false)
  call void @llvm.lifetime.start.p0(i64 8, ptr %9) #19
  store i64 0, ptr %9, align 8, !tbaa !9
  br label %20

20:                                               ; preds = %68, %4
  %21 = load i64, ptr %9, align 8, !tbaa !9
  %22 = load i64, ptr %6, align 8, !tbaa !9
  %23 = icmp slt i64 %21, %22
  br i1 %23, label %25, label %24

24:                                               ; preds = %20
  store i32 2, ptr %10, align 4
  call void @llvm.lifetime.end.p0(i64 8, ptr %9) #19
  br label %71

25:                                               ; preds = %20
  call void @llvm.lifetime.start.p0(i64 4, ptr %11) #19
  store i32 0, ptr %11, align 4, !tbaa !21
  br label %26

26:                                               ; preds = %54, %25
  %27 = load i32, ptr %11, align 4, !tbaa !21
  %28 = getelementptr inbounds nuw %"struct.faiss::VectorTransform", ptr %12, i32 0, i32 2
  %29 = load i32, ptr %28, align 4, !tbaa !28
  %30 = icmp slt i32 %27, %29
  br i1 %30, label %32, label %31

31:                                               ; preds = %26
  store i32 5, ptr %10, align 4
  call void @llvm.lifetime.end.p0(i64 4, ptr %11) #19
  br label %57

32:                                               ; preds = %26
  %33 = getelementptr inbounds nuw %"struct.faiss::RemapDimensionsTransform", ptr %12, i32 0, i32 1
  %34 = load i32, ptr %11, align 4, !tbaa !21
  %35 = sext i32 %34 to i64
  %36 = call noundef nonnull align 4 dereferenceable(4) ptr @_ZNKSt6vectorIiSaIiEEixEm(ptr noundef nonnull align 8 dereferenceable(24) %33, i64 noundef %35) #19
  %37 = load i32, ptr %36, align 4, !tbaa !21
  %38 = icmp sge i32 %37, 0
  br i1 %38, label %39, label %53

39:                                               ; preds = %32
  %40 = load ptr, ptr %7, align 8, !tbaa !11
  %41 = load i32, ptr %11, align 4, !tbaa !21
  %42 = sext i32 %41 to i64
  %43 = getelementptr inbounds float, ptr %40, i64 %42
  %44 = load float, ptr %43, align 4, !tbaa !29
  %45 = load ptr, ptr %8, align 8, !tbaa !11
  %46 = getelementptr inbounds nuw %"struct.faiss::RemapDimensionsTransform", ptr %12, i32 0, i32 1
  %47 = load i32, ptr %11, align 4, !tbaa !21
  %48 = sext i32 %47 to i64
  %49 = call noundef nonnull align 4 dereferenceable(4) ptr @_ZNKSt6vectorIiSaIiEEixEm(ptr noundef nonnull align 8 dereferenceable(24) %46, i64 noundef %48) #19
  %50 = load i32, ptr %49, align 4, !tbaa !21
  %51 = sext i32 %50 to i64
  %52 = getelementptr inbounds float, ptr %45, i64 %51
  store float %44, ptr %52, align 4, !tbaa !29
  br label %53

53:                                               ; preds = %39, %32
  br label %54

54:                                               ; preds = %53
  %55 = load i32, ptr %11, align 4, !tbaa !21
  %56 = add nsw i32 %55, 1
  store i32 %56, ptr %11, align 4, !tbaa !21
  br label %26, !llvm.loop !42

57:                                               ; preds = %31
  %58 = getelementptr inbounds nuw %"struct.faiss::VectorTransform", ptr %12, i32 0, i32 1
  %59 = load i32, ptr %58, align 8, !tbaa !34
  %60 = load ptr, ptr %8, align 8, !tbaa !11
  %61 = sext i32 %59 to i64
  %62 = getelementptr inbounds float, ptr %60, i64 %61
  store ptr %62, ptr %8, align 8, !tbaa !11
  %63 = getelementptr inbounds nuw %"struct.faiss::VectorTransform", ptr %12, i32 0, i32 2
  %64 = load i32, ptr %63, align 4, !tbaa !28
  %65 = load ptr, ptr %7, align 8, !tbaa !11
  %66 = sext i32 %64 to i64
  %67 = getelementptr inbounds float, ptr %65, i64 %66
  store ptr %67, ptr %7, align 8, !tbaa !11
  br label %68

68:                                               ; preds = %57
  %69 = load i64, ptr %9, align 8, !tbaa !9
  %70 = add nsw i64 %69, 1
  store i64 %70, ptr %9, align 8, !tbaa !9
  br label %20, !llvm.loop !43

71:                                               ; preds = %24
  ret void
}