; Function Attrs: mustprogress nofree norecurse nosync nounwind memory(read, argmem: readwrite, inaccessiblemem: none) uwtable
define void @_ZNK5faiss24RemapDimensionsTransform17reverse_transformElPKfPf(ptr noundef nonnull readonly align 8 captures(none) dereferenceable(48) %0, i64 noundef %1, ptr noundef readonly captures(none) %2, ptr noundef writeonly captures(none) %3) unnamed_addr #5 align 2 {
  %5 = shl i64 %1, 2
  %6 = getelementptr inbounds nuw i8, ptr %0, i64 8
  %7 = load i32, ptr %6, align 8, !tbaa !37
  %8 = sext i32 %7 to i64
  %9 = mul i64 %5, %8
  tail call void @llvm.memset.p0.i64(ptr align 4 %3, i8 0, i64 %9, i1 false)
  %10 = icmp sgt i64 %1, 0
  br i1 %10, label %.preheader.lr.ph, label %._crit_edge22

.preheader.lr.ph:                                 ; preds = %4
  %11 = getelementptr inbounds nuw i8, ptr %0, i64 12
  %12 = load i32, ptr %11, align 4, !tbaa !29
  %13 = icmp sgt i32 %12, 0
  %14 = getelementptr inbounds nuw i8, ptr %0, i64 24
  %15 = load ptr, ptr %14, align 8
  %16 = load i32, ptr %6, align 8, !tbaa !37
  %17 = sext i32 %16 to i64
  %18 = sext i32 %12 to i64
  br i1 %13, label %.preheader.us.preheader, label %._crit_edge22

.preheader.us.preheader:                          ; preds = %.preheader.lr.ph
  %wide.trip.count = zext nneg i32 %12 to i64
  br label %.preheader.us

.preheader.us:                                    ; preds = %.preheader.us.preheader, %._crit_edge.us
  %.01421.us = phi i64 [ %31, %._crit_edge.us ], [ 0, %.preheader.us.preheader ]
  %.01520.us = phi ptr [ %29, %._crit_edge.us ], [ %3, %.preheader.us.preheader ]
  %.01619.us = phi ptr [ %30, %._crit_edge.us ], [ %2, %.preheader.us.preheader ]
  br label %19

19:                                               ; preds = %.preheader.us, %28
  %indvars.iv = phi i64 [ 0, %.preheader.us ], [ %indvars.iv.next, %28 ]
  %20 = getelementptr inbounds nuw i32, ptr %15, i64 %indvars.iv
  %21 = load i32, ptr %20, align 4, !tbaa !38
  %22 = icmp sgt i32 %21, -1
  br i1 %22, label %23, label %28

23:                                               ; preds = %19
  %24 = getelementptr inbounds nuw float, ptr %.01619.us, i64 %indvars.iv
  %25 = load float, ptr %24, align 4, !tbaa !32
  %26 = zext nneg i32 %21 to i64
  %27 = getelementptr inbounds nuw float, ptr %.01520.us, i64 %26
  store float %25, ptr %27, align 4, !tbaa !32
  br label %28

28:                                               ; preds = %23, %19
  %indvars.iv.next = add nuw nsw i64 %indvars.iv, 1
  %exitcond.not = icmp eq i64 %indvars.iv.next, %wide.trip.count
  br i1 %exitcond.not, label %._crit_edge.us, label %19, !llvm.loop !46

._crit_edge.us:                                   ; preds = %28
  %29 = getelementptr inbounds float, ptr %.01520.us, i64 %17
  %30 = getelementptr inbounds nuw float, ptr %.01619.us, i64 %18
  %31 = add nuw nsw i64 %.01421.us, 1
  %exitcond25.not = icmp eq i64 %31, %1
  br i1 %exitcond25.not, label %._crit_edge22, label %.preheader.us, !llvm.loop !47

._crit_edge22:                                    ; preds = %._crit_edge.us, %.preheader.lr.ph, %4
  ret void
}